; ModuleID = '45/2178.c'
source_filename = "45/2178.c"
target datalayout = "e-m:e-p270:32:32-p271:32:32-p272:64:64-i64:64-f80:128-n8:16:32:64-S128"
target triple = "x86_64-pc-linux-gnu"

@.str = private unnamed_addr constant [6 x i8] c"%s %s\00", align 1
@.str.1 = private unnamed_addr constant [3 x i8] c"%d\00", align 1

; Function Attrs: noinline nounwind uwtable
define dso_local i32 @main() #0 {
  %1 = alloca i32, align 4
  %2 = alloca [50 x i8], align 16
  %3 = alloca [50 x i8], align 16
  %4 = alloca i8*, align 8
  %5 = alloca i8*, align 8
  %6 = alloca [50 x [50 x i8]], align 16
  %7 = alloca i8*, align 8
  %8 = alloca i32, align 4
  %9 = alloca i32, align 4
  %10 = alloca i32, align 4
  %11 = alloca i32, align 4
  store i32 0, i32* %1, align 4
  %12 = getelementptr inbounds [50 x i8], [50 x i8]* %2, i64 0, i64 0
  %13 = getelementptr inbounds [50 x i8], [50 x i8]* %3, i64 0, i64 0
  %14 = call i32 (i8*, ...) @__isoc99_scanf(i8* getelementptr inbounds ([6 x i8], [6 x i8]* @.str, i64 0, i64 0), i8* %12, i8* %13)
  %15 = getelementptr inbounds [50 x i8], [50 x i8]* %2, i64 0, i64 0
  %16 = call i64 @strlen(i8* %15) #3
  %17 = trunc i64 %16 to i32
  store i32 %17, i32* %8, align 4
  store i32 0, i32* %9, align 4
  store i32 0, i32* %11, align 4
  %18 = getelementptr inbounds [50 x i8], [50 x i8]* %3, i64 0, i64 0
  store i8* %18, i8** %5, align 8
  br label %19

19:                                               ; preds = %53, %0
  %20 = load i8*, i8** %5, align 8
  %21 = load i32, i32* %8, align 4
  %22 = sext i32 %21 to i64
  %23 = getelementptr inbounds i8, i8* %20, i64 %22
  %24 = getelementptr inbounds i8, i8* %23, i64 -1
  %25 = load i8, i8* %24, align 1
  %26 = sext i8 %25 to i32
  %27 = icmp ne i32 %26, 0
  br i1 %27, label %28, label %58

28:                                               ; preds = %19
  store i32 0, i32* %10, align 4
  %29 = load i32, i32* %9, align 4
  %30 = sext i32 %29 to i64
  %31 = getelementptr inbounds [50 x [50 x i8]], [50 x [50 x i8]]* %6, i64 0, i64 %30
  %32 = getelementptr inbounds [50 x i8], [50 x i8]* %31, i64 0, i64 0
  store i8* %32, i8** %7, align 8
  br label %33

33:                                               ; preds = %44, %28
  %34 = load i32, i32* %10, align 4
  %35 = load i32, i32* %8, align 4
  %36 = icmp slt i32 %34, %35
  br i1 %36, label %37, label %49

37:                                               ; preds = %33
  %38 = load i8*, i8** %5, align 8
  %39 = load i32, i32* %10, align 4
  %40 = sext i32 %39 to i64
  %41 = getelementptr inbounds i8, i8* %38, i64 %40
  %42 = load i8, i8* %41, align 1
  %43 = load i8*, i8** %7, align 8
  store i8 %42, i8* %43, align 1
  br label %44

44:                                               ; preds = %37
  %45 = load i32, i32* %10, align 4
  %46 = add nsw i32 %45, 1
  store i32 %46, i32* %10, align 4
  %47 = load i8*, i8** %7, align 8
  %48 = getelementptr inbounds i8, i8* %47, i32 1
  store i8* %48, i8** %7, align 8
  br label %33

49:                                               ; preds = %33
  %50 = load i8*, i8** %7, align 8
  store i8 0, i8* %50, align 1
  %51 = load i32, i32* %11, align 4
  %52 = add nsw i32 %51, 1
  store i32 %52, i32* %11, align 4
  br label %53

53:                                               ; preds = %49
  %54 = load i8*, i8** %5, align 8
  %55 = getelementptr inbounds i8, i8* %54, i32 1
  store i8* %55, i8** %5, align 8
  %56 = load i32, i32* %9, align 4
  %57 = add nsw i32 %56, 1
  store i32 %57, i32* %9, align 4
  br label %19

58:                                               ; preds = %19
  store i32 0, i32* %10, align 4
  br label %59

59:                                               ; preds = %73, %58
  %60 = load i32, i32* %10, align 4
  %61 = load i32, i32* %11, align 4
  %62 = icmp slt i32 %60, %61
  br i1 %62, label %63, label %76

63:                                               ; preds = %59
  %64 = getelementptr inbounds [50 x i8], [50 x i8]* %2, i64 0, i64 0
  %65 = load i32, i32* %10, align 4
  %66 = sext i32 %65 to i64
  %67 = getelementptr inbounds [50 x [50 x i8]], [50 x [50 x i8]]* %6, i64 0, i64 %66
  %68 = getelementptr inbounds [50 x i8], [50 x i8]* %67, i64 0, i64 0
  %69 = call i32 @strcmp(i8* %64, i8* %68) #3
  %70 = icmp eq i32 %69, 0
  br i1 %70, label %71, label %72

71:                                               ; preds = %63
  br label %76

72:                                               ; preds = %63
  br label %73

73:                                               ; preds = %72
  %74 = load i32, i32* %10, align 4
  %75 = add nsw i32 %74, 1
  store i32 %75, i32* %10, align 4
  br label %59

76:                                               ; preds = %71, %59
  %77 = load i32, i32* %10, align 4
  %78 = call i32 (i8*, ...) @printf(i8* getelementptr inbounds ([3 x i8], [3 x i8]* @.str.1, i64 0, i64 0), i32 %77)
  ret i32 0
}

declare dso_local i32 @__isoc99_scanf(i8*, ...) #1

; Function Attrs: nounwind readonly
declare dso_local i64 @strlen(i8*) #2

; Function Attrs: nounwind readonly
declare dso_local i32 @strcmp(i8*, i8*) #2

declare dso_local i32 @printf(i8*, ...) #1


!llvm.module.flags = !{!0}
!llvm.ident = !{!1}

!0 = !{i32 1, !"wchar_size", i32 4}
!1 = !{!"clang version 10.0.0-4ubuntu1 "}
